; Function Attrs: mustprogress uwtable
define hidden void @_ZN10sls_engine6mk_decEjRK3mpzRS0_(ptr noundef nonnull align 8 dereferenceable(1512) %this, i32 noundef %bv_sz, ptr noundef nonnull align 8 dereferenceable(16) %old_value, ptr noundef nonnull align 8 dereferenceable(16) %decremented) local_unnamed_addr #3 align 2 {
entry:
  %ref.tmp.i = alloca %class.mpz, align 8
  %0 = load i32, ptr %old_value, align 8
  %cmp.i = icmp eq i32 %0, 0
  %m_mpz_manager2 = getelementptr inbounds i8, ptr %this, i64 72
  br i1 %cmp.i, label %if.then, label %if.else

if.then:                                          ; preds = %entry
  %m_powers = getelementptr inbounds i8, ptr %this, i64 672
  %call3 = tail call noundef nonnull align 8 dereferenceable(16) ptr @_ZN6powersclEj(ptr noundef nonnull align 8 dereferenceable(32) %m_powers, i32 noundef %bv_sz)
  %m_kind.i.i = getelementptr inbounds i8, ptr %call3, i64 4
  %bf.load.i.i = load i8, ptr %m_kind.i.i, align 4
  %bf.clear.i.i = and i8 %bf.load.i.i, 1
  %cmp.i.i = icmp eq i8 %bf.clear.i.i, 0
  br i1 %cmp.i.i, label %if.then.i, label %if.else.i

if.then.i:                                        ; preds = %if.then
  %1 = load i32, ptr %call3, align 8
  store i32 %1, ptr %decremented, align 8
  %m_kind.i = getelementptr inbounds i8, ptr %decremented, i64 4
  %bf.load.i = load i8, ptr %m_kind.i, align 4
  %bf.clear.i = and i8 %bf.load.i, -2
  store i8 %bf.clear.i, ptr %m_kind.i, align 4
  br label %_ZN11mpz_managerILb0EE3setER3mpzRKS1_.exit

if.else.i:                                        ; preds = %if.then
  tail call void @_ZN11mpz_managerILb0EE7big_setER3mpzRKS1_(ptr noundef nonnull align 8 dereferenceable(600) %m_mpz_manager2, ptr noundef nonnull align 8 dereferenceable(16) %decremented, ptr noundef nonnull align 8 dereferenceable(16) %call3)
  br label %_ZN11mpz_managerILb0EE3setER3mpzRKS1_.exit

_ZN11mpz_managerILb0EE3setER3mpzRKS1_.exit:       ; preds = %if.then.i, %if.else.i
  call void @llvm.lifetime.start.p0(i64 16, ptr nonnull %ref.tmp.i)
  store i32 -1, ptr %ref.tmp.i, align 8
  %m_kind.i.i4 = getelementptr inbounds i8, ptr %ref.tmp.i, i64 4
  store i8 0, ptr %m_kind.i.i4, align 4
  %m_ptr.i.i = getelementptr inbounds i8, ptr %ref.tmp.i, i64 8
  store ptr null, ptr %m_ptr.i.i, align 8
  call void @_ZN11mpz_managerILb0EE3addERK3mpzS3_RS1_(ptr noundef nonnull align 8 dereferenceable(600) %m_mpz_manager2, ptr noundef nonnull align 8 dereferenceable(16) %decremented, ptr noundef nonnull align 8 dereferenceable(16) %ref.tmp.i, ptr noundef nonnull align 8 dereferenceable(16) %decremented)
  call void @llvm.lifetime.end.p0(i64 16, ptr nonnull %ref.tmp.i)
  br label %if.end

if.else:                                          ; preds = %entry
  %m_one = getelementptr inbounds i8, ptr %this, i64 720
  tail call void @_ZN11mpz_managerILb0EE3subERK3mpzS3_RS1_(ptr noundef nonnull align 8 dereferenceable(600) %m_mpz_manager2, ptr noundef nonnull align 8 dereferenceable(16) %old_value, ptr noundef nonnull align 8 dereferenceable(16) %m_one, ptr noundef nonnull align 8 dereferenceable(16) %decremented)
  br label %if.end

if.end:                                           ; preds = %if.else, %_ZN11mpz_managerILb0EE3setER3mpzRKS1_.exit
  ret void
}